ccopy_reg
_reconstructor
p1
(cargparse
Namespace
p2
c__builtin__
object
p3
NtRp4
(dp5
S'grad_clip'
p6
F10
sS'rnn_size'
p7
I256
sS'operation'
p8
S'train'
p9
sS'features_to_keep'
p10
I32
sS'batch_size_deep'
p11
I32
sS'data_scale'
p12
I20
sS'learning_rate'
p13
F0.0015
sS'num_epochs'
p14
I15
sS'batch_size'
p15
I32
sS'decay_rate'
p16
F0.94999999999999996
sS'num_mixture'
p17
I20
sS'seq_length'
p18
I1024
sS'model_dir'
p19
S'./mdn_model'
p20
sS'num_layers'
p21
I3
sS'model'
p22
S'lstm'
p23
sS'save_every'
p24
I500
sS'keep_prob'
p25
F0.80000000000000004
sb.